; ModuleID = '50/1127.c'
source_filename = "50/1127.c"
target datalayout = "e-m:e-p270:32:32-p271:32:32-p272:64:64-i64:64-f80:128-n8:16:32:64-S128"
target triple = "x86_64-pc-linux-gnu"

@__const.main.day = private unnamed_addr constant [11 x i32] [i32 31, i32 28, i32 31, i32 30, i32 31, i32 30, i32 31, i32 31, i32 30, i32 31, i32 30], align 16
@.str = private unnamed_addr constant [3 x i8] c"%d\00", align 1
@.str.1 = private unnamed_addr constant [3 x i8] c"1\0A\00", align 1
@.str.2 = private unnamed_addr constant [4 x i8] c"%d\0A\00", align 1

; Function Attrs: noinline nounwind uwtable
define dso_local i32 @main() #0 {
  %1 = alloca i32, align 4
  %2 = alloca [11 x i32], align 16
  %3 = alloca i32, align 4
  %4 = alloca i32, align 4
  store i32 0, i32* %1, align 4
  %5 = bitcast [11 x i32]* %2 to i8*
  call void @llvm.memcpy.p0i8.p0i8.i64(i8* align 16 %5, i8* align 16 bitcast ([11 x i32]* @__const.main.day to i8*), i64 44, i1 false)
  %6 = call i32 (i8*, ...) @__isoc99_scanf(i8* getelementptr inbounds ([3 x i8], [3 x i8]* @.str, i64 0, i64 0), i32* %3)
  %7 = load i32, i32* %3, align 4
  %8 = add nsw i32 %7, 5
  store i32 %8, i32* %3, align 4
  %9 = load i32, i32* %3, align 4
  %10 = icmp sgt i32 %9, 7
  br i1 %10, label %11, label %14

11:                                               ; preds = %0
  %12 = load i32, i32* %3, align 4
  %13 = sub nsw i32 %12, 7
  store i32 %13, i32* %3, align 4
  br label %14

14:                                               ; preds = %11, %0
  %15 = load i32, i32* %3, align 4
  %16 = icmp eq i32 %15, 5
  br i1 %16, label %17, label %19

17:                                               ; preds = %14
  %18 = call i32 (i8*, ...) @printf(i8* getelementptr inbounds ([3 x i8], [3 x i8]* @.str.1, i64 0, i64 0))
  br label %19

19:                                               ; preds = %17, %14
  store i32 0, i32* %4, align 4
  br label %20

20:                                               ; preds = %44, %19
  %21 = load i32, i32* %4, align 4
  %22 = icmp slt i32 %21, 11
  br i1 %22, label %23, label %47

23:                                               ; preds = %20
  %24 = load i32, i32* %4, align 4
  %25 = sext i32 %24 to i64
  %26 = getelementptr inbounds [11 x i32], [11 x i32]* %2, i64 0, i64 %25
  %27 = load i32, i32* %26, align 4
  %28 = srem i32 %27, 7
  %29 = load i32, i32* %3, align 4
  %30 = add nsw i32 %29, %28
  store i32 %30, i32* %3, align 4
  %31 = load i32, i32* %3, align 4
  %32 = icmp sgt i32 %31, 7
  br i1 %32, label %33, label %36

33:                                               ; preds = %23
  %34 = load i32, i32* %3, align 4
  %35 = sub nsw i32 %34, 7
  store i32 %35, i32* %3, align 4
  br label %36

36:                                               ; preds = %33, %23
  %37 = load i32, i32* %3, align 4
  %38 = icmp eq i32 %37, 5
  br i1 %38, label %39, label %43

39:                                               ; preds = %36
  %40 = load i32, i32* %4, align 4
  %41 = add nsw i32 %40, 2
  %42 = call i32 (i8*, ...) @printf(i8* getelementptr inbounds ([4 x i8], [4 x i8]* @.str.2, i64 0, i64 0), i32 %41)
  br label %43

43:                                               ; preds = %39, %36
  br label %44

44:                                               ; preds = %43
  %45 = load i32, i32* %4, align 4
  %46 = add nsw i32 %45, 1
  store i32 %46, i32* %4, align 4
  br label %20

47:                                               ; preds = %20
  ret i32 0
}

; Function Attrs: argmemonly nounwind willreturn
declare void @llvm.memcpy.p0i8.p0i8.i64(i8* noalias nocapture writeonly, i8* noalias nocapture readonly, i64, i1 immarg) #1

declare dso_local i32 @__isoc99_scanf(i8*, ...) #2

declare dso_local i32 @printf(i8*, ...) #2


!llvm.module.flags = !{!0}
!llvm.ident = !{!1}

!0 = !{i32 1, !"wchar_size", i32 4}
!1 = !{!"clang version 10.0.0-4ubuntu1 "}
